; ModuleID = 'bench/wireshark/original/export_pdu_ui_utils.ll'
source_filename = "bench/wireshark/original/export_pdu_ui_utils.ll"
target datalayout = "e-m:e-p270:32:32-p271:32:32-p272:64:64-i64:64-i128:128-f80:128-n8:16:32:64-S128"
target triple = "x86_64-pc-linux-gnu"

%struct._capture_file = type { ptr, i32, ptr, ptr, i8, i8, i8, i64, i16, i32, i32, i32, ptr, i32, i64, i32, i32, i32, i32, i8, i32, %struct.nstime_t, i32, ptr, ptr, ptr, i8, i8, i32, ptr, i8, i8, i8, i8, i8, i32, i32, i8, ptr, i32, i32, i8, %struct.packet_provider_data, i32, i32, %struct.epan_column_info, ptr, ptr, ptr, %struct.wtap_rec, %struct.Buffer, ptr, i64, i32 }
%struct.nstime_t = type { i64, i32 }
%struct.packet_provider_data = type { ptr, ptr, ptr, ptr, ptr, ptr }
%struct.epan_column_info = type { ptr, i32, ptr, ptr, ptr, %struct.col_expr_t, i8, ptr }
%struct.col_expr_t = type { ptr, ptr }
%struct.wtap_rec = type { i32, i32, i32, %struct.nstime_t, i32, %struct.nstime_t, i8, %union.anon, ptr, i8, %struct.Buffer, %struct.Buffer }
%union.anon = type { %struct.wtap_packet_header }
%struct.wtap_packet_header = type { i32, i32, i32, i32, %union.wtap_pseudo_header }
%union.wtap_pseudo_header = type { %struct.erf_mc_phdr }
%struct.erf_mc_phdr = type { %struct.erf_phdr, [16 x %struct.erf_ehdr], %union.anon.1 }
%struct.erf_phdr = type { i64, i8, i8, i16, i16, i16 }
%struct.erf_ehdr = type { i64 }
%union.anon.1 = type { i32 }
%struct.Buffer = type { ptr, i64, i64, i64 }
%struct._exp_pdu_t = type { ptr, i32, ptr, ptr, ptr, i32 }

@.str = private unnamed_addr constant [3 x i8] c"%s\00", align 1
@.str.1 = private unnamed_addr constant [15 x i8] c"Wireshark_PDU_\00", align 1
@.str.2 = private unnamed_addr constant [40 x i8] c"Temporary file could not be created: %s\00", align 1
@.str.3 = private unnamed_addr constant [21 x i8] c"Dump of PDUs from %s\00", align 1
@cfile = external global %struct._capture_file, align 8
@.str.4 = private unnamed_addr constant [15 x i8] c"temporary file\00", align 1

; Function Attrs: null_pointer_is_valid sspstrong uwtable
define hidden void @do_export_pdu(ptr noundef %0, ptr noundef %1, ptr noundef %2) local_unnamed_addr #0 {
  %4 = alloca %struct._exp_pdu_t, align 8
  %5 = alloca ptr, align 8
  %6 = alloca i32, align 4
  %7 = alloca ptr, align 8
  %8 = alloca ptr, align 8
  call void @llvm.lifetime.start.p0(i64 48, ptr nonnull %4) #3
  call void @llvm.lifetime.start.p0(i64 8, ptr nonnull %5) #3
  store ptr null, ptr %5, align 8
  call void @llvm.lifetime.start.p0(i64 4, ptr nonnull %6) #3
  call void @llvm.lifetime.start.p0(i64 8, ptr nonnull %7) #3
  %9 = call ptr @exp_pdu_pre_open(ptr noundef %2, ptr noundef %0, ptr noundef nonnull %4)
  %.not = icmp eq ptr %9, null
  br i1 %.not, label %12, label %10

10:                                               ; preds = %3
  %11 = call ptr (i32, i32, ptr, ...) @simple_dialog(i32 noundef 3, i32 noundef 1, ptr noundef nonnull @.str, ptr noundef nonnull %9)
  call void @g_free(ptr noundef nonnull %9)
  br label %45

12:                                               ; preds = %3
  call void @llvm.lifetime.start.p0(i64 8, ptr nonnull %8) #3
  store ptr null, ptr %8, align 8
  %13 = call i32 @create_tempfile(ptr noundef %1, ptr noundef nonnull %5, ptr noundef nonnull @.str.1, ptr noundef null, ptr noundef nonnull %8)
  %14 = icmp slt i32 %13, 0
  br i1 %14, label %15, label %20

15:                                               ; preds = %12
  %16 = load ptr, ptr %8, align 8
  %17 = getelementptr inbounds nuw i8, ptr %16, i64 8
  %18 = load ptr, ptr %17, align 8
  call void (ptr, ...) @failure_alert_box(ptr noundef nonnull @.str.2, ptr noundef %18)
  %19 = load ptr, ptr %8, align 8
  call void @g_error_free(ptr noundef %19)
  br label %43

20:                                               ; preds = %12
  %21 = call i32 @wtap_pcapng_file_type_subtype()
  %22 = load ptr, ptr getelementptr inbounds nuw (i8, ptr @cfile, i64 16), align 8
  %23 = call noalias ptr (ptr, ptr, ...) @wmem_strdup_printf(ptr noundef null, ptr noundef nonnull @.str.3, ptr noundef %22)
  %24 = load ptr, ptr %5, align 8
  %25 = call zeroext i1 @exp_pdu_open(ptr noundef nonnull %4, ptr noundef %24, i32 noundef %21, i32 noundef %13, ptr noundef %23, ptr noundef nonnull %6, ptr noundef nonnull %7)
  call void @g_free(ptr noundef %23)
  br i1 %25, label %31, label %26

26:                                               ; preds = %20
  %27 = load ptr, ptr %5, align 8
  %.not13 = icmp eq ptr %27, null
  %28 = select i1 %.not13, ptr @.str.4, ptr %27
  %29 = load i32, ptr %6, align 4
  %30 = load ptr, ptr %7, align 8
  call void @cfile_dump_open_failure_alert_box(ptr noundef nonnull %28, i32 noundef %29, ptr noundef %30, i32 noundef %21)
  br label %43

31:                                               ; preds = %20
  %32 = call i32 @cf_retap_packets(ptr noundef nonnull @cfile)
  %33 = call zeroext i1 @exp_pdu_close(ptr noundef nonnull %4, ptr noundef nonnull %6, ptr noundef nonnull %7)
  br i1 %33, label %38, label %34

34:                                               ; preds = %31
  %35 = load ptr, ptr %5, align 8
  %36 = load i32, ptr %6, align 4
  %37 = load ptr, ptr %7, align 8
  call void @cfile_close_failure_alert_box(ptr noundef %35, i32 noundef %36, ptr noundef %37)
  br label %38

38:                                               ; preds = %34, %31
  %39 = load ptr, ptr %5, align 8
  %40 = call i32 @cf_open(ptr noundef nonnull @cfile, ptr noundef %39, i32 noundef 0, i1 noundef zeroext true, ptr noundef nonnull %6)
  %.not14 = icmp eq i32 %40, 0
  br i1 %.not14, label %41, label %43

41:                                               ; preds = %38
  %42 = call i32 @cf_read(ptr noundef nonnull @cfile, i1 noundef zeroext false)
  br label %43

43:                                               ; preds = %38, %41, %26, %15
  %44 = load ptr, ptr %5, align 8
  call void @g_free(ptr noundef %44)
  call void @llvm.lifetime.end.p0(i64 8, ptr nonnull %8) #3
  br label %45

45:                                               ; preds = %43, %10
  call void @llvm.lifetime.end.p0(i64 8, ptr nonnull %7) #3
  call void @llvm.lifetime.end.p0(i64 4, ptr nonnull %6) #3
  call void @llvm.lifetime.end.p0(i64 8, ptr nonnull %5) #3
  call void @llvm.lifetime.end.p0(i64 48, ptr nonnull %4) #3
  ret void
}

; Function Attrs: mustprogress nocallback nofree nosync nounwind willreturn memory(argmem: readwrite)
declare void @llvm.lifetime.start.p0(i64 immarg, ptr captures(none)) #1

; Function Attrs: null_pointer_is_valid
declare ptr @exp_pdu_pre_open(ptr noundef, ptr noundef, ptr noundef) local_unnamed_addr #2

; Function Attrs: null_pointer_is_valid
declare ptr @simple_dialog(i32 noundef, i32 noundef, ptr noundef, ...) local_unnamed_addr #2

; Function Attrs: null_pointer_is_valid
declare void @g_free(ptr noundef) local_unnamed_addr #2

; Function Attrs: null_pointer_is_valid
declare i32 @create_tempfile(ptr noundef, ptr noundef, ptr noundef, ptr noundef, ptr noundef) local_unnamed_addr #2

; Function Attrs: null_pointer_is_valid
declare void @failure_alert_box(ptr noundef, ...) local_unnamed_addr #2

; Function Attrs: null_pointer_is_valid
declare void @g_error_free(ptr noundef) local_unnamed_addr #2

; Function Attrs: null_pointer_is_valid
declare i32 @wtap_pcapng_file_type_subtype() local_unnamed_addr #2

; Function Attrs: null_pointer_is_valid
declare noalias ptr @wmem_strdup_printf(ptr noundef, ptr noundef, ...) local_unnamed_addr #2

; Function Attrs: null_pointer_is_valid
declare zeroext i1 @exp_pdu_open(ptr noundef, ptr noundef, i32 noundef, i32 noundef, ptr noundef, ptr noundef, ptr noundef) local_unnamed_addr #2

; Function Attrs: null_pointer_is_valid
declare void @cfile_dump_open_failure_alert_box(ptr noundef, i32 noundef, ptr noundef, i32 noundef) local_unnamed_addr #2

; Function Attrs: null_pointer_is_valid
declare i32 @cf_retap_packets(ptr noundef) local_unnamed_addr #2

; Function Attrs: null_pointer_is_valid
declare zeroext i1 @exp_pdu_close(ptr noundef, ptr noundef, ptr noundef) local_unnamed_addr #2

; Function Attrs: null_pointer_is_valid
declare void @cfile_close_failure_alert_box(ptr noundef, i32 noundef, ptr noundef) local_unnamed_addr #2

; Function Attrs: null_pointer_is_valid
declare i32 @cf_open(ptr noundef, ptr noundef, i32 noundef, i1 noundef zeroext, ptr noundef) local_unnamed_addr #2

; Function Attrs: null_pointer_is_valid
declare i32 @cf_read(ptr noundef, i1 noundef zeroext) local_unnamed_addr #2

; Function Attrs: mustprogress nocallback nofree nosync nounwind willreturn memory(argmem: readwrite)
declare void @llvm.lifetime.end.p0(i64 immarg, ptr captures(none)) #1


!llvm.module.flags = !{!0, !1, !2, !3, !4, !5}

!0 = !{i32 1, !"wchar_size", i32 4}
!1 = !{i32 8, !"cf-protection-return", i32 1}
!2 = !{i32 8, !"cf-protection-branch", i32 1}
!3 = !{i32 4, !"probe-stack", !"inline-asm"}
!4 = !{i32 8, !"PIC Level", i32 2}
!5 = !{i32 7, !"uwtable", i32 2}
